(imodel
Model
p0
(dp1
S'routes'
p2
(lp3
(iroute
Route
p4
(dp5
S'sits_number'
p6
I78
sS'routeNumber'
p7
I33
sS'departure'
p8
S'Lviv'
p9
sba(iroute
Route
p10
(dp11
g6
I77
sg7
I23
sg8
S'Kharkiv'
p12
sbasS'buses'
p13
(lp14
(ibus
Bus
p15
(dp16
S'busNumber'
p17
I54
sS'route'
p18
g4
sS'name'
p19
S'Jojo'
p20
sba(ibus
Bus
p21
(dp22
g17
I16
sg18
g4
sg19
S'Etalon'
p23
sba(ibus
Bus
p24
(dp25
g17
I167
sg18
g4
sg19
S'Kil'
p26
sba(ibus
Bus
p27
(dp28
g17
I108
sg18
g10
sg19
S'Pop'
p29
sbasb.